target datalayout = "e-m:e-p270:32:32-p271:32:32-p272:64:64-i64:64-i128:128-f80:128-n8:16:32:64-S128"
target triple = "x86_64-pc-linux-gnu"

; Function Attrs: nounwind uwtable
define float @stbtt__oversample_shift(i32 noundef %0) #0 {
  %2 = alloca float, align 4
  %3 = alloca i32, align 4
  store i32 %0, ptr %3, align 4, !tbaa !14
  %4 = load i32, ptr %3, align 4, !tbaa !14
  %5 = icmp ne i32 %4, 0
  br i1 %5, label %7, label %6

6:                                                ; preds = %1
  store float 0.000000e+00, ptr %2, align 4
  br label %16

7:                                                ; preds = %1
  %8 = load i32, ptr %3, align 4, !tbaa !14
  %9 = sub nsw i32 %8, 1
  %10 = sub nsw i32 0, %9
  %11 = sitofp i32 %10 to float
  %12 = load i32, ptr %3, align 4, !tbaa !14
  %13 = sitofp i32 %12 to float
  %14 = fmul float 2.000000e+00, %13
  %15 = fdiv float %11, %14
  store float %15, ptr %2, align 4
  br label %16

16:                                               ; preds = %7, %6
  %17 = load float, ptr %2, align 4
  ret float %17
}