; Function Attrs: mustprogress nofree norecurse nosync nounwind willreturn memory(none) uwtable
define float @stbtt__oversample_shift(i32 noundef %0) local_unnamed_addr #5 {
  %.not = icmp eq i32 %0, 0
  br i1 %.not, label %8, label %2

2:                                                ; preds = %1
  %3 = sub nsw i32 1, %0
  %4 = sitofp i32 %3 to float
  %5 = sitofp i32 %0 to float
  %6 = fmul float %5, 2.000000e+00
  %7 = fdiv float %4, %6
  br label %8

8:                                                ; preds = %1, %2
  %.0 = phi float [ %7, %2 ], [ 0.000000e+00, %1 ]
  ret float %.0
}